target datalayout = "e-m:e-p270:32:32-p271:32:32-p272:64:64-i64:64-i128:128-f80:128-n8:16:32:64-S128"
target triple = "x86_64-pc-linux-gnu"

%struct._e_guid_t = type { i32, i16, i16, [8 x i8] }
%struct.smb_info = type { i8, i32, i32, i32, i32, i32, i8, i8, i8, i32, i32, ptr, ptr }
%struct._smb_fid_into_t = type { i16, i16, i64, i32, i32, i32, ptr }
%struct.smb_saved_info_t = type { i32, i32, %struct.nstime_t, i16, i8, ptr, i32, i8, i16 }
%struct.nstime_t = type { i64, i32 }
%struct.smb_transact_info_t = type { i32, i32, i32, i16, i16, ptr, ptr, ptr, i32 }
%struct.conv_tables = type { ptr, ptr, ptr, ptr, i8, ptr, ptr, ptr, ptr }
%struct._GSList = type { ptr, ptr }
%struct._packet_info = type { ptr, ptr, i32, i32, %struct.nstime_t, %struct.nstime_t, %struct.nstime_t, i8, ptr, ptr, ptr, ptr, %struct._address, %struct._address, %struct._address, %struct._address, %struct._address, %struct._address, i32, ptr, i8, [3 x i8], %struct.anon, i32, i32, i32, i32, ptr, i8, ptr, ptr, i16, i16, i32, i32, i16, i32, i32, ptr, ptr, ptr, i8, i8, i16, i16, i16, i32, i16, i16, ptr, ptr, ptr, ptr, ptr, i32, i32 }
%struct._address = type { i32, i32, ptr, ptr }
%struct.anon = type { i8, [3 x i8] }
%struct._smb2_info_t = type { i16, i32, i32, i32, i64, i64, i32, ptr, ptr, ptr, ptr, ptr, ptr, ptr }
%struct._smb2_saved_info_t = type { i8, i8, i64, i32, i32, %struct.nstime_t, ptr, ptr, ptr, %struct._e_ctx_hnd, ptr, i64, i32, ptr, i32, i32, i16, ptr, %struct._e_guid_t, i32, i32, ptr }
%struct._e_ctx_hnd = type { i32, %struct._e_guid_t }

@proto_mswsp = internal global i32 0, align 4
@SMB1 = internal global i32 1, align 4

; Function Attrs: nounwind null_pointer_is_valid sspstrong uwtable
define internal ptr @find_fid_info(ptr noundef %0) #3 {
  %2 = alloca ptr, align 8
  %3 = alloca ptr, align 8
  %4 = alloca ptr, align 8
  %5 = alloca ptr, align 8
  %6 = alloca ptr, align 8
  %7 = alloca i32, align 4
  %8 = alloca i32, align 4
  %9 = alloca ptr, align 8
  store ptr %0, ptr %3, align 8
  call void @llvm.lifetime.start.p0(i64 8, ptr %4) #11
  store ptr null, ptr %4, align 8
  call void @llvm.lifetime.start.p0(i64 8, ptr %5) #11
  %10 = load ptr, ptr %3, align 8
  %11 = getelementptr inbounds nuw %struct.smb_info, ptr %10, i32 0, i32 11
  %12 = load ptr, ptr %11, align 8
  %13 = icmp ne ptr %12, null
  br i1 %13, label %14, label %27

14:                                               ; preds = %1
  %15 = load ptr, ptr %3, align 8
  %16 = getelementptr inbounds nuw %struct.smb_info, ptr %15, i32 0, i32 11
  %17 = load ptr, ptr %16, align 8
  %18 = getelementptr inbounds nuw %struct.smb_saved_info_t, ptr %17, i32 0, i32 6
  %19 = load i32, ptr %18, align 8
  %20 = icmp eq i32 %19, 3
  br i1 %20, label %21, label %27

21:                                               ; preds = %14
  %22 = load ptr, ptr %3, align 8
  %23 = getelementptr inbounds nuw %struct.smb_info, ptr %22, i32 0, i32 11
  %24 = load ptr, ptr %23, align 8
  %25 = getelementptr inbounds nuw %struct.smb_saved_info_t, ptr %24, i32 0, i32 5
  %26 = load ptr, ptr %25, align 8
  br label %28

27:                                               ; preds = %14, %1
  br label %28

28:                                               ; preds = %27, %21
  %29 = phi ptr [ %26, %21 ], [ null, %27 ]
  store ptr %29, ptr %5, align 8
  call void @llvm.lifetime.start.p0(i64 8, ptr %6) #11
  call void @llvm.lifetime.start.p0(i64 4, ptr %7) #11
  store i32 0, ptr %7, align 4
  %30 = load ptr, ptr %5, align 8
  %31 = icmp eq ptr %30, null
  br i1 %31, label %32, label %52

32:                                               ; preds = %28
  %33 = load ptr, ptr %3, align 8
  %34 = getelementptr inbounds nuw %struct.smb_info, ptr %33, i32 0, i32 11
  %35 = load ptr, ptr %34, align 8
  %36 = icmp ne ptr %35, null
  br i1 %36, label %37, label %51

37:                                               ; preds = %32
  %38 = load ptr, ptr %3, align 8
  %39 = getelementptr inbounds nuw %struct.smb_info, ptr %38, i32 0, i32 11
  %40 = load ptr, ptr %39, align 8
  %41 = getelementptr inbounds nuw %struct.smb_saved_info_t, ptr %40, i32 0, i32 6
  %42 = load i32, ptr %41, align 8
  %43 = icmp eq i32 %42, 9
  br i1 %43, label %44, label %51

44:                                               ; preds = %37
  %45 = load ptr, ptr %3, align 8
  %46 = getelementptr inbounds nuw %struct.smb_info, ptr %45, i32 0, i32 11
  %47 = load ptr, ptr %46, align 8
  %48 = getelementptr inbounds nuw %struct.smb_saved_info_t, ptr %47, i32 0, i32 8
  %49 = load i16, ptr %48, align 2
  %50 = zext i16 %49 to i32
  store i32 %50, ptr %7, align 4
  br label %51

51:                                               ; preds = %44, %37, %32
  br label %57

52:                                               ; preds = %28
  %53 = load ptr, ptr %5, align 8
  %54 = getelementptr inbounds nuw %struct.smb_transact_info_t, ptr %53, i32 0, i32 3
  %55 = load i16, ptr %54, align 4
  %56 = zext i16 %55 to i32
  store i32 %56, ptr %7, align 4
  br label %57

57:                                               ; preds = %52, %51
  %58 = load i32, ptr %7, align 4
  %59 = icmp ne i32 %58, 0
  br i1 %59, label %61, label %60

60:                                               ; preds = %57
  store ptr null, ptr %2, align 8
  store i32 1, ptr %8, align 4
  br label %101

61:                                               ; preds = %57
  %62 = load ptr, ptr %3, align 8
  %63 = getelementptr inbounds nuw %struct.smb_info, ptr %62, i32 0, i32 12
  %64 = load ptr, ptr %63, align 8
  %65 = getelementptr inbounds nuw %struct.conv_tables, ptr %64, i32 0, i32 6
  %66 = load ptr, ptr %65, align 8
  store ptr %66, ptr %6, align 8
  br label %67

67:                                               ; preds = %95, %61
  %68 = load ptr, ptr %6, align 8
  %69 = icmp ne ptr %68, null
  br i1 %69, label %70, label %99

70:                                               ; preds = %67
  call void @llvm.lifetime.start.p0(i64 8, ptr %9) #11
  %71 = load ptr, ptr %6, align 8
  %72 = getelementptr inbounds nuw %struct._GSList, ptr %71, i32 0, i32 0
  %73 = load ptr, ptr %72, align 8
  store ptr %73, ptr %9, align 8
  %74 = load ptr, ptr %9, align 8
  %75 = getelementptr inbounds nuw %struct._smb_fid_into_t, ptr %74, i32 0, i32 0
  %76 = load i16, ptr %75, align 8
  %77 = zext i16 %76 to i32
  %78 = load ptr, ptr %3, align 8
  %79 = getelementptr inbounds nuw %struct.smb_info, ptr %78, i32 0, i32 1
  %80 = load i32, ptr %79, align 4
  %81 = icmp eq i32 %77, %80
  br i1 %81, label %82, label %91

82:                                               ; preds = %70
  %83 = load ptr, ptr %9, align 8
  %84 = getelementptr inbounds nuw %struct._smb_fid_into_t, ptr %83, i32 0, i32 1
  %85 = load i16, ptr %84, align 2
  %86 = zext i16 %85 to i32
  %87 = load i32, ptr %7, align 4
  %88 = icmp eq i32 %86, %87
  br i1 %88, label %89, label %91

89:                                               ; preds = %82
  %90 = load ptr, ptr %9, align 8
  store ptr %90, ptr %4, align 8
  store i32 2, ptr %8, align 4
  br label %92

91:                                               ; preds = %82, %70
  store i32 0, ptr %8, align 4
  br label %92

92:                                               ; preds = %91, %89
  call void @llvm.lifetime.end.p0(i64 8, ptr %9) #11
  %93 = load i32, ptr %8, align 4
  switch i32 %93, label %103 [
    i32 0, label %94
    i32 2, label %99
  ]

94:                                               ; preds = %92
  br label %95

95:                                               ; preds = %94
  %96 = load ptr, ptr %6, align 8
  %97 = getelementptr inbounds nuw %struct._GSList, ptr %96, i32 0, i32 1
  %98 = load ptr, ptr %97, align 8
  store ptr %98, ptr %6, align 8
  br label %67, !llvm.loop !10

99:                                               ; preds = %92, %67
  %100 = load ptr, ptr %4, align 8
  store ptr %100, ptr %2, align 8
  store i32 1, ptr %8, align 4
  br label %101

101:                                              ; preds = %99, %60
  call void @llvm.lifetime.end.p0(i64 4, ptr %7) #11
  call void @llvm.lifetime.end.p0(i64 8, ptr %6) #11
  call void @llvm.lifetime.end.p0(i64 8, ptr %5) #11
  call void @llvm.lifetime.end.p0(i64 8, ptr %4) #11
  %102 = load ptr, ptr %2, align 8
  ret ptr %102

103:                                              ; preds = %92
  unreachable
}

; Function Attrs: null_pointer_is_valid sspstrong uwtable
define internal zeroext i1 @get_fid_and_frame(ptr noundef %0, ptr noundef %1, ptr noundef %2, ptr noundef %3) #0 {
  %5 = alloca i1, align 1
  %6 = alloca ptr, align 8
  %7 = alloca ptr, align 8
  %8 = alloca ptr, align 8
  %9 = alloca ptr, align 8
  %10 = alloca i8, align 1
  %11 = alloca ptr, align 8
  %12 = alloca i32, align 4
  %13 = alloca ptr, align 8
  %14 = alloca ptr, align 8
  %15 = alloca ptr, align 8
  %16 = alloca i32, align 4
  %17 = alloca i32, align 4
  %18 = alloca ptr, align 8
  store ptr %0, ptr %6, align 8
  store ptr %1, ptr %7, align 8
  store ptr %2, ptr %8, align 8
  store ptr %3, ptr %9, align 8
  call void @llvm.lifetime.start.p0(i64 1, ptr %10) #11
  store i8 1, ptr %10, align 1
  call void @llvm.lifetime.start.p0(i64 8, ptr %11) #11
  %19 = call ptr @wmem_file_scope()
  %20 = load ptr, ptr %6, align 8
  %21 = load i32, ptr @proto_mswsp, align 4
  %22 = call ptr @p_get_proto_data(ptr noundef %19, ptr noundef %20, i32 noundef %21, i32 noundef 0)
  store ptr %22, ptr %11, align 8
  %23 = load ptr, ptr %11, align 8
  %24 = icmp ne ptr %23, null
  br i1 %24, label %26, label %25

25:                                               ; preds = %4
  store i1 false, ptr %5, align 1
  store i32 1, ptr %12, align 4
  br label %73

26:                                               ; preds = %4
  %27 = load ptr, ptr %6, align 8
  %28 = getelementptr inbounds nuw %struct._packet_info, ptr %27, i32 0, i32 3
  %29 = load i32, ptr %28, align 4
  %30 = load ptr, ptr %8, align 8
  store i32 %29, ptr %30, align 4
  %31 = load ptr, ptr %11, align 8
  %32 = load i32, ptr %31, align 4
  %33 = load i32, ptr @SMB1, align 4
  %34 = icmp eq i32 %32, %33
  br i1 %34, label %35, label %51

35:                                               ; preds = %26
  call void @llvm.lifetime.start.p0(i64 8, ptr %13) #11
  %36 = load ptr, ptr %9, align 8
  store ptr %36, ptr %13, align 8
  call void @llvm.lifetime.start.p0(i64 8, ptr %14) #11
  %37 = load ptr, ptr %13, align 8
  %38 = call ptr @find_fid_info(ptr noundef %37)
  store ptr %38, ptr %14, align 8
  %39 = load ptr, ptr %14, align 8
  %40 = icmp ne ptr %39, null
  br i1 %40, label %42, label %41

41:                                               ; preds = %35
  store i1 false, ptr %5, align 1
  store i32 1, ptr %12, align 4
  br label %48

42:                                               ; preds = %35
  %43 = load ptr, ptr %14, align 8
  %44 = getelementptr inbounds nuw %struct._smb_fid_into_t, ptr %43, i32 0, i32 1
  %45 = load i16, ptr %44, align 2
  %46 = zext i16 %45 to i32
  %47 = load ptr, ptr %7, align 8
  store i32 %46, ptr %47, align 4
  store i32 0, ptr %12, align 4
  br label %48

48:                                               ; preds = %42, %41
  call void @llvm.lifetime.end.p0(i64 8, ptr %14) #11
  call void @llvm.lifetime.end.p0(i64 8, ptr %13) #11
  %49 = load i32, ptr %12, align 4
  switch i32 %49, label %73 [
    i32 0, label %50
  ]

50:                                               ; preds = %48
  br label %70

51:                                               ; preds = %26
  call void @llvm.lifetime.start.p0(i64 8, ptr %15) #11
  %52 = load ptr, ptr %9, align 8
  store ptr %52, ptr %15, align 8
  call void @llvm.lifetime.start.p0(i64 4, ptr %16) #11
  store i32 0, ptr %16, align 4
  call void @llvm.lifetime.start.p0(i64 4, ptr %17) #11
  store i32 0, ptr %17, align 4
  call void @llvm.lifetime.start.p0(i64 8, ptr %18) #11
  store ptr null, ptr %18, align 8
  %53 = load ptr, ptr %15, align 8
  %54 = getelementptr inbounds nuw %struct._smb2_info_t, ptr %53, i32 0, i32 9
  %55 = load ptr, ptr %54, align 8
  %56 = icmp ne ptr %55, null
  br i1 %56, label %57, label %68

57:                                               ; preds = %51
  %58 = load ptr, ptr %15, align 8
  %59 = getelementptr inbounds nuw %struct._smb2_info_t, ptr %58, i32 0, i32 9
  %60 = load ptr, ptr %59, align 8
  %61 = getelementptr inbounds nuw %struct._smb2_saved_info_t, ptr %60, i32 0, i32 9
  %62 = load ptr, ptr %6, align 8
  %63 = getelementptr inbounds nuw %struct._packet_info, ptr %62, i32 0, i32 3
  %64 = load i32, ptr %63, align 4
  %65 = call zeroext i1 @dcerpc_fetch_polhnd_data(ptr noundef %61, ptr noundef %18, ptr noundef null, ptr noundef %16, ptr noundef %17, i32 noundef %64)
  %66 = load i32, ptr %16, align 4
  %67 = load ptr, ptr %7, align 8
  store i32 %66, ptr %67, align 4
  br label %69

68:                                               ; preds = %51
  store i8 0, ptr %10, align 1
  br label %69

69:                                               ; preds = %68, %57
  call void @llvm.lifetime.end.p0(i64 8, ptr %18) #11
  call void @llvm.lifetime.end.p0(i64 4, ptr %17) #11
  call void @llvm.lifetime.end.p0(i64 4, ptr %16) #11
  call void @llvm.lifetime.end.p0(i64 8, ptr %15) #11
  br label %70

70:                                               ; preds = %69, %50
  %71 = load i8, ptr %10, align 1, !range !8, !noundef !9
  %72 = trunc i8 %71 to i1
  store i1 %72, ptr %5, align 1
  store i32 1, ptr %12, align 4
  br label %73

73:                                               ; preds = %70, %48, %25
  call void @llvm.lifetime.end.p0(i64 8, ptr %11) #11
  call void @llvm.lifetime.end.p0(i64 1, ptr %10) #11
  %74 = load i1, ptr %5, align 1
  ret i1 %74
}