; Function Attrs: null_pointer_is_valid sspstrong uwtable
define internal fastcc noundef zeroext i1 @get_fid_and_frame(ptr noundef %0, ptr noundef writeonly captures(none) %1, ptr noundef writeonly captures(none) %2, ptr noundef readonly captures(none) %3) unnamed_addr #0 {
  %5 = alloca i32, align 4
  %6 = alloca i32, align 4
  %7 = alloca ptr, align 8
  %8 = tail call ptr @wmem_file_scope()
  %9 = load i32, ptr @proto_mswsp, align 4
  %10 = tail call ptr @p_get_proto_data(ptr noundef %8, ptr noundef %0, i32 noundef %9, i32 noundef 0)
  %.not = icmp eq ptr %10, null
  br i1 %.not, label %.critedge, label %11

11:                                               ; preds = %4
  %12 = getelementptr inbounds nuw i8, ptr %0, i64 20
  %13 = load i32, ptr %12, align 4
  store i32 %13, ptr %2, align 4
  %14 = load i32, ptr %10, align 4
  %15 = load i32, ptr @SMB1, align 4
  %16 = icmp eq i32 %14, %15
  br i1 %16, label %17, label %51

17:                                               ; preds = %11
  %18 = getelementptr inbounds nuw i8, ptr %3, i64 40
  %19 = load ptr, ptr %18, align 8
  %.not.i = icmp eq ptr %19, null
  br i1 %.not.i, label %.critedge, label %20

20:                                               ; preds = %17
  %21 = getelementptr inbounds nuw i8, ptr %19, i64 40
  %22 = load i32, ptr %21, align 8
  switch i32 %22, label %.critedge [
    i32 3, label %23
    i32 9, label %27
  ]

23:                                               ; preds = %20
  %24 = getelementptr inbounds nuw i8, ptr %19, i64 32
  %25 = load ptr, ptr %24, align 8
  %26 = icmp eq ptr %25, null
  br i1 %26, label %.critedge, label %29

27:                                               ; preds = %20
  %28 = getelementptr inbounds nuw i8, ptr %19, i64 46
  br label %31

29:                                               ; preds = %23
  %30 = getelementptr inbounds nuw i8, ptr %25, i64 12
  br label %31

31:                                               ; preds = %29, %27
  %.021.shrunk.in.i = phi ptr [ %28, %27 ], [ %30, %29 ]
  %.021.shrunk.i = load i16, ptr %.021.shrunk.in.i, align 2
  %.not28.i = icmp eq i16 %.021.shrunk.i, 0
  br i1 %.not28.i, label %.critedge, label %32

32:                                               ; preds = %31
  %33 = getelementptr inbounds nuw i8, ptr %3, i64 48
  %34 = load ptr, ptr %33, align 8
  %35 = getelementptr inbounds nuw i8, ptr %34, i64 48
  %.02241.i = load ptr, ptr %35, align 8
  %.not2942.i = icmp eq ptr %.02241.i, null
  br i1 %.not2942.i, label %.critedge, label %.lr.ph.i

.lr.ph.i:                                         ; preds = %32
  %36 = getelementptr inbounds nuw i8, ptr %3, i64 4
  %37 = load i32, ptr %36, align 4
  br label %38

38:                                               ; preds = %47, %.lr.ph.i
  %.02243.i = phi ptr [ %.02241.i, %.lr.ph.i ], [ %.022.i, %47 ]
  %39 = load ptr, ptr %.02243.i, align 8
  %40 = load i16, ptr %39, align 8
  %41 = zext i16 %40 to i32
  %42 = icmp eq i32 %37, %41
  br i1 %42, label %43, label %47

43:                                               ; preds = %38
  %44 = getelementptr inbounds nuw i8, ptr %39, i64 2
  %45 = load i16, ptr %44, align 2
  %46 = icmp eq i16 %45, %.021.shrunk.i
  br i1 %46, label %find_fid_info.exit, label %47

47:                                               ; preds = %43, %38
  %48 = getelementptr inbounds nuw i8, ptr %.02243.i, i64 8
  %.022.i = load ptr, ptr %48, align 8
  %.not29.i = icmp eq ptr %.022.i, null
  br i1 %.not29.i, label %.critedge, label %38, !llvm.loop !10

find_fid_info.exit:                               ; preds = %43
  %.not24.not = icmp eq ptr %39, null
  br i1 %.not24.not, label %.critedge, label %49

49:                                               ; preds = %find_fid_info.exit
  %50 = zext i16 %.021.shrunk.i to i32
  store i32 %50, ptr %1, align 4
  br label %.critedge

51:                                               ; preds = %11
  call void @llvm.lifetime.start.p0(i64 4, ptr nonnull %5) #11
  store i32 0, ptr %5, align 4
  call void @llvm.lifetime.start.p0(i64 4, ptr nonnull %6) #11
  store i32 0, ptr %6, align 4
  call void @llvm.lifetime.start.p0(i64 8, ptr nonnull %7) #11
  store ptr null, ptr %7, align 8
  %52 = getelementptr inbounds nuw i8, ptr %3, i64 56
  %53 = load ptr, ptr %52, align 8
  %.not23 = icmp ne ptr %53, null
  br i1 %.not23, label %54, label %58

54:                                               ; preds = %51
  %55 = getelementptr inbounds nuw i8, ptr %53, i64 64
  %56 = call zeroext i1 @dcerpc_fetch_polhnd_data(ptr noundef nonnull %55, ptr noundef nonnull %7, ptr noundef null, ptr noundef nonnull %5, ptr noundef nonnull %6, i32 noundef %13)
  %57 = load i32, ptr %5, align 4
  store i32 %57, ptr %1, align 4
  br label %58

58:                                               ; preds = %51, %54
  call void @llvm.lifetime.end.p0(i64 8, ptr nonnull %7) #11
  call void @llvm.lifetime.end.p0(i64 4, ptr nonnull %6) #11
  call void @llvm.lifetime.end.p0(i64 4, ptr nonnull %5) #11
  br label %.critedge

.critedge:                                        ; preds = %47, %20, %23, %32, %17, %31, %find_fid_info.exit, %58, %4, %49
  %.0 = phi i1 [ false, %4 ], [ %.not23, %58 ], [ true, %49 ], [ false, %find_fid_info.exit ], [ false, %31 ], [ false, %17 ], [ false, %32 ], [ false, %23 ], [ false, %20 ], [ false, %47 ]
  ret i1 %.0
}